; Function Attrs: mustprogress nofree norecurse nosync nounwind willreturn memory(write, argmem: readwrite, inaccessiblemem: none) uwtable
define hidden void @_ZN2cv20CvVideoWriter_Images5closeEv(ptr noundef nonnull align 8 captures(none) dereferenceable(72) initializes((16, 24), (40, 44)) %0) local_unnamed_addr #9 align 2 personality ptr @__gxx_personality_v0 {
  %2 = getelementptr inbounds nuw i8, ptr %0, i64 8
  %3 = getelementptr inbounds nuw i8, ptr %0, i64 16
  store i64 0, ptr %3, align 8, !tbaa !3
  %4 = load ptr, ptr %2, align 8, !tbaa !11
  store i8 0, ptr %4, align 1, !tbaa !12
  %5 = getelementptr inbounds nuw i8, ptr %0, i64 40
  store i32 0, ptr %5, align 8, !tbaa !166
  %6 = getelementptr inbounds nuw i8, ptr %0, i64 48
  %7 = load ptr, ptr %6, align 8, !tbaa !174
  %8 = getelementptr inbounds nuw i8, ptr %0, i64 56
  %9 = load ptr, ptr %8, align 8, !tbaa !173
  %.not.i.i = icmp eq ptr %9, %7
  br i1 %.not.i.i, label %_ZNSt6vectorIiSaIiEE5clearEv.exit, label %10

10:                                               ; preds = %1
  store ptr %7, ptr %8, align 8, !tbaa !173
  br label %_ZNSt6vectorIiSaIiEE5clearEv.exit

_ZNSt6vectorIiSaIiEE5clearEv.exit:                ; preds = %1, %10
  ret void
}